target datalayout = "e-m:e-p270:32:32-p271:32:32-p272:64:64-i64:64-i128:128-f80:128-n8:16:32:64-S128"
target triple = "x86_64-pc-linux-gnu"

%struct.ssl_connection_st = type { %struct.ssl_st, ptr, i32, ptr, ptr, ptr, i32, ptr, i32, i32, i32, i32, %struct.OSSL_TIME, %struct.OSSL_TIME, %struct.ossl_statem_st, i32, ptr, ptr, i64, i64, i64, %struct.ossl_quic_tls_callbacks_st, ptr, ptr, %struct.anon, ptr, ptr, ptr, i32, ptr, %struct.ssl_dane_st, ptr, ptr, ptr, ptr, i32, [64 x i8], [64 x i8], [64 x i8], [64 x i8], [64 x i8], [64 x i8], [64 x i8], [64 x i8], [64 x i8], [64 x i8], [64 x i8], [64 x i8], ptr, [64 x i8], i64, i32, i64, [32 x i8], ptr, ptr, ptr, i64, ptr, [32 x i8], i64, i32, ptr, ptr, i32, i32, ptr, ptr, ptr, ptr, ptr, i64, ptr, ptr, i64, i32, i32, i32, i64, i32, i32, i64, i64, i64, %struct.anon.1, ptr, i32, ptr, ptr, ptr, i32, ptr, ptr, ptr, i32, i32, i32, i32, ptr, i64, i32, ptr, %struct.srp_ctx_st, ptr, %struct.record_layer_st, ptr, ptr, ptr, ptr, i64, i32, i32, i32, i64, i64, i64, ptr, ptr, ptr, ptr, ptr, i64, ptr, i64, ptr, i64 }
%struct.ssl_st = type { i32, ptr, ptr, ptr, %struct.CRYPTO_REF_COUNT, ptr, %struct.crypto_ex_data_st }
%struct.CRYPTO_REF_COUNT = type { i32 }
%struct.crypto_ex_data_st = type { ptr, ptr }
%struct.OSSL_TIME = type { i64 }
%struct.ossl_statem_st = type { i32, i32, i32, i32, i32, i32, i32, i32, i32, i32, i32, i32, i32, ptr, ptr, ptr, i8 }
%struct.ossl_quic_tls_callbacks_st = type { ptr, ptr, ptr, ptr, ptr, ptr }
%struct.anon = type { i64, [32 x i8], [32 x i8], ptr, ptr, i32, i32, i32, i32, [2 x i8], i32, i32, i32, i32, %struct.anon.0, [64 x i8], i64, [64 x i8], i64, i32, i32, ptr, i64, ptr, i64, i32, i8, i8, i16, ptr, i16 }
%struct.anon.0 = type { [128 x i8], i64, [128 x i8], i64, i64, i32, ptr, ptr, [4 x ptr], [4 x i16], i64, i32, ptr, i64, ptr, i64, ptr, ptr, ptr, i32, i64, ptr, i32, ptr, i64, ptr, i64, ptr, i64, ptr, ptr, ptr, ptr, i64, i64, ptr, ptr, i32, i32, i32, i32 }
%struct.ssl_dane_st = type { ptr, ptr, ptr, ptr, ptr, i32, i32, i32, i64 }
%struct.anon.1 = type { [29 x i8], ptr, ptr, ptr, i32, ptr, i16, i32, %struct.anon.2, i32, i32, i64, ptr, i64, ptr, i64, ptr, i64, ptr, i64, ptr, i64, ptr, ptr, ptr, ptr, ptr, ptr, ptr, i64, ptr, i64, i32, i32, i32, i32, ptr, i64, i32, i8, i32, [4 x i32], i32, i8, i8, i8, i8 }
%struct.anon.2 = type { ptr, ptr, ptr, i64 }
%struct.srp_ctx_st = type { ptr, ptr, ptr, ptr, ptr, ptr, ptr, ptr, ptr, ptr, ptr, ptr, ptr, ptr, i32, i64 }
%struct.record_layer_st = type { ptr, ptr, ptr, ptr, ptr, ptr, ptr, ptr, i64, i32, i64, [4 x i8], i64, i64, i8, ptr, i32, ptr, ptr, ptr, i64, i64, i64, i64, [32 x %struct.tls_record_st] }
%struct.tls_record_st = type { ptr, i32, i8, ptr, ptr, i64, i64, i16, [8 x i8] }

; Function Attrs: nounwind uwtable
define i32 @tls_construct_server_done(ptr noundef %0, ptr noundef %1) #0 {
  %3 = alloca i32, align 4
  %4 = alloca ptr, align 8
  %5 = alloca ptr, align 8
  store ptr %0, ptr %4, align 8, !tbaa !11
  store ptr %1, ptr %5, align 8, !tbaa !145
  %6 = load ptr, ptr %4, align 8, !tbaa !11
  %7 = getelementptr inbounds nuw %struct.ssl_connection_st, ptr %6, i32 0, i32 24
  %8 = getelementptr inbounds nuw %struct.anon, ptr %7, i32 0, i32 14
  %9 = getelementptr inbounds nuw %struct.anon.0, ptr %8, i32 0, i32 22
  %10 = load i32, ptr %9, align 8, !tbaa !84
  %11 = icmp ne i32 %10, 0
  br i1 %11, label %18, label %12

12:                                               ; preds = %2
  %13 = load ptr, ptr %4, align 8, !tbaa !11
  %14 = call i32 @ssl3_digest_cached_records(ptr noundef %13, i32 noundef 0)
  %15 = icmp ne i32 %14, 0
  br i1 %15, label %17, label %16

16:                                               ; preds = %12
  store i32 0, ptr %3, align 4
  br label %19

17:                                               ; preds = %12
  br label %18

18:                                               ; preds = %17, %2
  store i32 1, ptr %3, align 4
  br label %19

19:                                               ; preds = %18, %16
  %20 = load i32, ptr %3, align 4
  ret i32 %20
}