; Function Attrs: nounwind uwtable
define range(i32 0, 2) i32 @tls_construct_server_done(ptr noundef %0, ptr readnone captures(none) %1) #1 {
  %3 = getelementptr inbounds nuw i8, ptr %0, i64 920
  %4 = load i32, ptr %3, align 8, !tbaa !78
  %.not = icmp eq i32 %4, 0
  br i1 %.not, label %5, label %7

5:                                                ; preds = %2
  %6 = tail call i32 @ssl3_digest_cached_records(ptr noundef nonnull %0, i32 noundef 0) #12
  %.not2 = icmp eq i32 %6, 0
  br i1 %.not2, label %8, label %7

7:                                                ; preds = %5, %2
  br label %8

8:                                                ; preds = %5, %7
  %.0 = phi i32 [ 1, %7 ], [ 0, %5 ]
  ret i32 %.0
}